target datalayout = "e-m:e-p270:32:32-p271:32:32-p272:64:64-i64:64-i128:128-f80:128-n8:16:32:64-S128"
target triple = "x86_64-unknown-linux-gnu"

%"class.google::protobuf::MessageLite" = type { ptr, %"class.google::protobuf::internal::InternalMetadata" }
%"class.google::protobuf::internal::InternalMetadata" = type { i64 }
%"struct.google::protobuf::internal::InternalMetadata::Container" = type { %"struct.google::protobuf::internal::InternalMetadata::ContainerBase", %"class.google::protobuf::UnknownFieldSet" }
%"struct.google::protobuf::internal::InternalMetadata::ContainerBase" = type { ptr }
%"class.google::protobuf::UnknownFieldSet" = type { %"class.std::vector" }
%"class.std::vector" = type { %"struct.std::_Vector_base" }
%"struct.std::_Vector_base" = type { %"struct.std::_Vector_base<google::protobuf::UnknownField, std::allocator<google::protobuf::UnknownField>>::_Vector_impl" }
%"struct.std::_Vector_base<google::protobuf::UnknownField, std::allocator<google::protobuf::UnknownField>>::_Vector_impl" = type { %"struct.std::_Vector_base<google::protobuf::UnknownField, std::allocator<google::protobuf::UnknownField>>::_Vector_impl_data" }
%"struct.std::_Vector_base<google::protobuf::UnknownField, std::allocator<google::protobuf::UnknownField>>::_Vector_impl_data" = type { ptr, ptr, ptr }
%"class.google::protobuf::internal::ParseContext" = type { %"class.google::protobuf::internal::EpsCopyInputStream", i32, i32, %"struct.google::protobuf::internal::ParseContext::Data" }
%"class.google::protobuf::internal::EpsCopyInputStream" = type { ptr, ptr, ptr, i32, i32, ptr, [32 x i8], i64, i32, i32 }
%"struct.google::protobuf::internal::ParseContext::Data" = type { ptr, ptr }
%"struct.std::pair.0" = type <{ ptr, i32, [4 x i8] }>
%"class.absl::lts_20230802::log_internal::NullStream" = type { i8 }
%"struct.std::pair" = type <{ ptr, i8, [7 x i8] }>

; Function Attrs: mustprogress nounwind uwtable
define linkonce_odr hidden noundef nonnull align 1 dereferenceable(1) ptr @_ZN4absl12lts_2023080212log_internal10NullStream14InternalStreamEv(ptr noundef nonnull align 1 dereferenceable(1) %this) #5 comdat align 2 {
entry:
  %this.addr = alloca ptr, align 8
  store ptr %this, ptr %this.addr, align 8
  %this1 = load ptr, ptr %this.addr, align 8
  ret ptr %this1
}

; Function Attrs: mustprogress uwtable
define linkonce_odr hidden noundef zeroext i1 @_ZN6google8protobuf8internal18EpsCopyInputStream13DoneWithCheckEPPKci(ptr noundef nonnull align 8 dereferenceable(88) %this, ptr noundef %ptr, i32 noundef %d) #4 comdat align 2 {
entry:
  %retval = alloca i1, align 1
  %this.addr = alloca ptr, align 8
  %ptr.addr = alloca ptr, align 8
  %d.addr = alloca i32, align 4
  %overrun = alloca i32, align 4
  %ref.tmp = alloca %"class.absl::lts_20230802::log_internal::NullStream", align 1
  %res = alloca %"struct.std::pair", align 8
  store ptr %this, ptr %this.addr, align 8
  store ptr %ptr, ptr %ptr.addr, align 8
  store i32 %d, ptr %d.addr, align 4
  %this1 = load ptr, ptr %this.addr, align 8
  %0 = load ptr, ptr %ptr.addr, align 8
  %1 = load ptr, ptr %0, align 8
  %limit_end_ = getelementptr inbounds %"class.google::protobuf::internal::EpsCopyInputStream", ptr %this1, i32 0, i32 0
  %2 = load ptr, ptr %limit_end_, align 8
  %cmp = icmp ult ptr %1, %2
  br i1 %cmp, label %if.then, label %if.end

if.then:                                          ; preds = %entry
  store i1 false, ptr %retval, align 1
  br label %return

if.end:                                           ; preds = %entry
  %3 = load ptr, ptr %ptr.addr, align 8
  %4 = load ptr, ptr %3, align 8
  %buffer_end_ = getelementptr inbounds %"class.google::protobuf::internal::EpsCopyInputStream", ptr %this1, i32 0, i32 1
  %5 = load ptr, ptr %buffer_end_, align 8
  %sub.ptr.lhs.cast = ptrtoint ptr %4 to i64
  %sub.ptr.rhs.cast = ptrtoint ptr %5 to i64
  %sub.ptr.sub = sub i64 %sub.ptr.lhs.cast, %sub.ptr.rhs.cast
  %conv = trunc i64 %sub.ptr.sub to i32
  store i32 %conv, ptr %overrun, align 4
  br label %while.cond

while.cond:                                       ; preds = %while.body, %if.end
  br i1 false, label %while.body, label %while.end

while.body:                                       ; preds = %while.cond
  %call = call noundef nonnull align 1 dereferenceable(1) ptr @_ZN4absl12lts_2023080212log_internal10NullStream14InternalStreamEv(ptr noundef nonnull align 1 dereferenceable(1) %ref.tmp)
  br label %while.cond, !llvm.loop !7

while.end:                                        ; preds = %while.cond
  %6 = load i32, ptr %overrun, align 4
  %limit_ = getelementptr inbounds %"class.google::protobuf::internal::EpsCopyInputStream", ptr %this1, i32 0, i32 4
  %7 = load i32, ptr %limit_, align 4
  %cmp2 = icmp eq i32 %6, %7
  br i1 %cmp2, label %if.then3, label %if.end8

if.then3:                                         ; preds = %while.end
  %8 = load i32, ptr %overrun, align 4
  %cmp4 = icmp sgt i32 %8, 0
  br i1 %cmp4, label %land.lhs.true, label %if.end7

land.lhs.true:                                    ; preds = %if.then3
  %next_chunk_ = getelementptr inbounds %"class.google::protobuf::internal::EpsCopyInputStream", ptr %this1, i32 0, i32 2
  %9 = load ptr, ptr %next_chunk_, align 8
  %cmp5 = icmp eq ptr %9, null
  br i1 %cmp5, label %if.then6, label %if.end7

if.then6:                                         ; preds = %land.lhs.true
  %10 = load ptr, ptr %ptr.addr, align 8
  store ptr null, ptr %10, align 8
  br label %if.end7

if.end7:                                          ; preds = %if.then6, %land.lhs.true, %if.then3
  store i1 true, ptr %retval, align 1
  br label %return

if.end8:                                          ; preds = %while.end
  %11 = load i32, ptr %overrun, align 4
  %12 = load i32, ptr %d.addr, align 4
  %call9 = call { ptr, i8 } @_ZN6google8protobuf8internal18EpsCopyInputStream12DoneFallbackEii(ptr noundef nonnull align 8 dereferenceable(88) %this1, i32 noundef %11, i32 noundef %12)
  %13 = getelementptr inbounds { ptr, i8 }, ptr %res, i32 0, i32 0
  %14 = extractvalue { ptr, i8 } %call9, 0
  store ptr %14, ptr %13, align 8
  %15 = getelementptr inbounds { ptr, i8 }, ptr %res, i32 0, i32 1
  %16 = extractvalue { ptr, i8 } %call9, 1
  store i8 %16, ptr %15, align 8
  %first = getelementptr inbounds %"struct.std::pair", ptr %res, i32 0, i32 0
  %17 = load ptr, ptr %first, align 8
  %18 = load ptr, ptr %ptr.addr, align 8
  store ptr %17, ptr %18, align 8
  %second = getelementptr inbounds %"struct.std::pair", ptr %res, i32 0, i32 1
  %19 = load i8, ptr %second, align 8
  %tobool = trunc i8 %19 to i1
  store i1 %tobool, ptr %retval, align 1
  br label %return

return:                                           ; preds = %if.end8, %if.end7, %if.then
  %20 = load i1, ptr %retval, align 1
  ret i1 %20
}

; Function Attrs: mustprogress nounwind uwtable
define linkonce_odr hidden noundef ptr @_ZNK6google8protobuf8internal16InternalMetadata8PtrValueINS2_9ContainerINS0_15UnknownFieldSetEEEEEPT_v(ptr noundef nonnull align 8 dereferenceable(8) %this) #5 comdat align 2 {
entry:
  %this.addr = alloca ptr, align 8
  store ptr %this, ptr %this.addr, align 8
  %this1 = load ptr, ptr %this.addr, align 8
  %ptr_ = getelementptr inbounds %"class.google::protobuf::internal::InternalMetadata", ptr %this1, i32 0, i32 0
  %0 = load i64, ptr %ptr_, align 8
  %and = and i64 %0, -2
  %1 = inttoptr i64 %and to ptr
  ret ptr %1
}

; Function Attrs: mustprogress nounwind uwtable
define linkonce_odr hidden void @_ZN6google8protobuf8internal18EpsCopyInputStream10SetLastTagEj(ptr noundef nonnull align 8 dereferenceable(88) %this, i32 noundef %tag) #5 comdat align 2 {
entry:
  %this.addr = alloca ptr, align 8
  %tag.addr = alloca i32, align 4
  store ptr %this, ptr %this.addr, align 8
  store i32 %tag, ptr %tag.addr, align 4
  %this1 = load ptr, ptr %this.addr, align 8
  %0 = load i32, ptr %tag.addr, align 4
  %sub = sub i32 %0, 1
  %last_tag_minus_1_ = getelementptr inbounds %"class.google::protobuf::internal::EpsCopyInputStream", ptr %this1, i32 0, i32 8
  store i32 %sub, ptr %last_tag_minus_1_, align 8
  ret void
}

; Function Attrs: mustprogress uwtable
define linkonce_odr hidden noundef ptr @_ZN6google8protobuf8internal7ReadTagEPKcPjj(ptr noundef %p, ptr noundef %out, i32 noundef %0) #4 comdat {
entry:
  %retval = alloca ptr, align 8
  %p.addr = alloca ptr, align 8
  %out.addr = alloca ptr, align 8
  %.addr = alloca i32, align 4
  %res = alloca i32, align 4
  %second = alloca i32, align 4
  %tmp = alloca %"struct.std::pair.0", align 8
  store ptr %p, ptr %p.addr, align 8
  store ptr %out, ptr %out.addr, align 8
  store i32 %0, ptr %.addr, align 4
  %1 = load ptr, ptr %p.addr, align 8
  %arrayidx = getelementptr inbounds i8, ptr %1, i64 0
  %2 = load i8, ptr %arrayidx, align 1
  %conv = zext i8 %2 to i32
  store i32 %conv, ptr %res, align 4
  %3 = load i32, ptr %res, align 4
  %cmp = icmp ult i32 %3, 128
  br i1 %cmp, label %if.then, label %if.end

if.then:                                          ; preds = %entry
  %4 = load i32, ptr %res, align 4
  %5 = load ptr, ptr %out.addr, align 8
  store i32 %4, ptr %5, align 4
  %6 = load ptr, ptr %p.addr, align 8
  %add.ptr = getelementptr inbounds i8, ptr %6, i64 1
  store ptr %add.ptr, ptr %retval, align 8
  br label %return

if.end:                                           ; preds = %entry
  %7 = load ptr, ptr %p.addr, align 8
  %arrayidx1 = getelementptr inbounds i8, ptr %7, i64 1
  %8 = load i8, ptr %arrayidx1, align 1
  %conv2 = zext i8 %8 to i32
  store i32 %conv2, ptr %second, align 4
  %9 = load i32, ptr %second, align 4
  %sub = sub i32 %9, 1
  %shl = shl i32 %sub, 7
  %10 = load i32, ptr %res, align 4
  %add = add i32 %10, %shl
  store i32 %add, ptr %res, align 4
  %11 = load i32, ptr %second, align 4
  %cmp3 = icmp ult i32 %11, 128
  br i1 %cmp3, label %if.then4, label %if.end6

if.then4:                                         ; preds = %if.end
  %12 = load i32, ptr %res, align 4
  %13 = load ptr, ptr %out.addr, align 8
  store i32 %12, ptr %13, align 4
  %14 = load ptr, ptr %p.addr, align 8
  %add.ptr5 = getelementptr inbounds i8, ptr %14, i64 2
  store ptr %add.ptr5, ptr %retval, align 8
  br label %return

if.end6:                                          ; preds = %if.end
  %15 = load ptr, ptr %p.addr, align 8
  %16 = load i32, ptr %res, align 4
  %call = call { ptr, i32 } @_ZN6google8protobuf8internal15ReadTagFallbackEPKcj(ptr noundef %15, i32 noundef %16)
  %17 = getelementptr inbounds { ptr, i32 }, ptr %tmp, i32 0, i32 0
  %18 = extractvalue { ptr, i32 } %call, 0
  store ptr %18, ptr %17, align 8
  %19 = getelementptr inbounds { ptr, i32 }, ptr %tmp, i32 0, i32 1
  %20 = extractvalue { ptr, i32 } %call, 1
  store i32 %20, ptr %19, align 8
  %second7 = getelementptr inbounds %"struct.std::pair.0", ptr %tmp, i32 0, i32 1
  %21 = load i32, ptr %second7, align 8
  %22 = load ptr, ptr %out.addr, align 8
  store i32 %21, ptr %22, align 4
  %first = getelementptr inbounds %"struct.std::pair.0", ptr %tmp, i32 0, i32 0
  %23 = load ptr, ptr %first, align 8
  store ptr %23, ptr %retval, align 8
  br label %return

return:                                           ; preds = %if.end6, %if.then4, %if.then
  %24 = load ptr, ptr %retval, align 8
  ret ptr %24
}

; Function Attrs: mustprogress uwtable
define linkonce_odr hidden noundef zeroext i1 @_ZN6google8protobuf8internal12ParseContext4DoneEPPKc(ptr noundef nonnull align 8 dereferenceable(112) %this, ptr noundef %ptr) #4 comdat align 2 {
entry:
  %this.addr = alloca ptr, align 8
  %ptr.addr = alloca ptr, align 8
  store ptr %this, ptr %this.addr, align 8
  store ptr %ptr, ptr %ptr.addr, align 8
  %this1 = load ptr, ptr %this.addr, align 8
  %0 = load ptr, ptr %ptr.addr, align 8
  %group_depth_ = getelementptr inbounds %"class.google::protobuf::internal::ParseContext", ptr %this1, i32 0, i32 2
  %1 = load i32, ptr %group_depth_, align 4
  %call = call noundef zeroext i1 @_ZN6google8protobuf8internal18EpsCopyInputStream13DoneWithCheckEPPKci(ptr noundef nonnull align 8 dereferenceable(88) %this1, ptr noundef %0, i32 noundef %1)
  ret i1 %call
}

; Function Attrs: mustprogress uwtable
define noundef ptr @_ZN6google8protobuf8internal14ZeroFieldsBase14_InternalParseEPKcPNS1_12ParseContextE(ptr noundef nonnull align 8 dereferenceable(20) %this, ptr noundef %ptr, ptr noundef %ctx) unnamed_addr #4 align 2 {
entry:
  %this.addr.i17 = alloca ptr, align 8
  %this.addr.i14 = alloca ptr, align 8
  %retval.i = alloca ptr, align 8
  %this.addr.i = alloca ptr, align 8
  %this.addr = alloca ptr, align 8
  %ptr.addr = alloca ptr, align 8
  %ctx.addr = alloca ptr, align 8
  %tag = alloca i32, align 4
  store ptr %this, ptr %this.addr, align 8
  store ptr %ptr, ptr %ptr.addr, align 8
  store ptr %ctx, ptr %ctx.addr, align 8
  %this1 = load ptr, ptr %this.addr, align 8
  br label %while.cond

while.cond:                                       ; preds = %if.end13, %entry
  %0 = load ptr, ptr %ctx.addr, align 8
  %call = call noundef zeroext i1 @_ZN6google8protobuf8internal12ParseContext4DoneEPPKc(ptr noundef nonnull align 8 dereferenceable(112) %0, ptr noundef %ptr.addr)
  %lnot = xor i1 %call, true
  br i1 %lnot, label %while.body, label %while.end

while.body:                                       ; preds = %while.cond
  %1 = load ptr, ptr %ptr.addr, align 8
  %call2 = call noundef ptr @_ZN6google8protobuf8internal7ReadTagEPKcPjj(ptr noundef %1, ptr noundef %tag, i32 noundef 0)
  store ptr %call2, ptr %ptr.addr, align 8
  %2 = load i32, ptr %tag, align 4
  %cmp = icmp eq i32 %2, 0
  br i1 %cmp, label %if.then, label %lor.lhs.false

lor.lhs.false:                                    ; preds = %while.body
  %3 = load i32, ptr %tag, align 4
  %and = and i32 %3, 7
  %cmp3 = icmp eq i32 %and, 4
  br i1 %cmp3, label %if.then, label %if.end6

if.then:                                          ; preds = %lor.lhs.false, %while.body
  %4 = load ptr, ptr %ptr.addr, align 8
  %tobool = icmp ne ptr %4, null
  %lnot4 = xor i1 %tobool, true
  br i1 %lnot4, label %if.then5, label %if.end

if.then5:                                         ; preds = %if.then
  br label %failure

if.end:                                           ; preds = %if.then
  %5 = load ptr, ptr %ctx.addr, align 8
  %6 = load i32, ptr %tag, align 4
  call void @_ZN6google8protobuf8internal18EpsCopyInputStream10SetLastTagEj(ptr noundef nonnull align 8 dereferenceable(88) %5, i32 noundef %6)
  br label %message_done

if.end6:                                          ; preds = %lor.lhs.false
  %7 = load i32, ptr %tag, align 4
  %conv = zext i32 %7 to i64
  %_internal_metadata_ = getelementptr inbounds %"class.google::protobuf::MessageLite", ptr %this1, i32 0, i32 1
  store ptr %_internal_metadata_, ptr %this.addr.i, align 8
  %this1.i = load ptr, ptr %this.addr.i, align 8
  store ptr %this1.i, ptr %this.addr.i14, align 8
  %this1.i15 = load ptr, ptr %this.addr.i14, align 8
  store ptr %this1.i15, ptr %this.addr.i17, align 8
  %this1.i18 = load ptr, ptr %this.addr.i17, align 8
  %8 = load i64, ptr %this1.i18, align 8
  %and.i = and i64 %8, 1
  %tobool.i = icmp ne i64 %and.i, 0
  br i1 %tobool.i, label %if.then.i, label %if.else.i

if.then.i:                                        ; preds = %if.end6
  %call2.i = call noundef ptr @_ZNK6google8protobuf8internal16InternalMetadata8PtrValueINS2_9ContainerINS0_15UnknownFieldSetEEEEEPT_v(ptr noundef nonnull align 8 dereferenceable(8) %this1.i)
  %unknown_fields.i = getelementptr inbounds %"struct.google::protobuf::internal::InternalMetadata::Container", ptr %call2.i, i32 0, i32 1
  store ptr %unknown_fields.i, ptr %retval.i, align 8
  br label %_ZN6google8protobuf8internal16InternalMetadata22mutable_unknown_fieldsINS0_15UnknownFieldSetEEEPT_v.exit

if.else.i:                                        ; preds = %if.end6
  %call3.i = call noundef ptr @_ZN6google8protobuf8internal16InternalMetadata27mutable_unknown_fields_slowINS0_15UnknownFieldSetEEEPT_v(ptr noundef nonnull align 8 dereferenceable(8) %this1.i)
  store ptr %call3.i, ptr %retval.i, align 8
  br label %_ZN6google8protobuf8internal16InternalMetadata22mutable_unknown_fieldsINS0_15UnknownFieldSetEEEPT_v.exit

_ZN6google8protobuf8internal16InternalMetadata22mutable_unknown_fieldsINS0_15UnknownFieldSetEEEPT_v.exit: ; preds = %if.else.i, %if.then.i
  %9 = load ptr, ptr %retval.i, align 8
  %10 = load ptr, ptr %ptr.addr, align 8
  %11 = load ptr, ptr %ctx.addr, align 8
  %call8 = call noundef ptr @_ZN6google8protobuf8internal17UnknownFieldParseEmPNS0_15UnknownFieldSetEPKcPNS1_12ParseContextE(i64 noundef %conv, ptr noundef %9, ptr noundef %10, ptr noundef %11)
  store ptr %call8, ptr %ptr.addr, align 8
  %12 = load ptr, ptr %ptr.addr, align 8
  %tobool9 = icmp ne ptr %12, null
  %lnot10 = xor i1 %tobool9, true
  br i1 %lnot10, label %if.then12, label %if.end13

if.then12:                                        ; preds = %_ZN6google8protobuf8internal16InternalMetadata22mutable_unknown_fieldsINS0_15UnknownFieldSetEEEPT_v.exit
  br label %failure

if.end13:                                         ; preds = %_ZN6google8protobuf8internal16InternalMetadata22mutable_unknown_fieldsINS0_15UnknownFieldSetEEEPT_v.exit
  br label %while.cond, !llvm.loop !4

while.end:                                        ; preds = %while.cond
  br label %message_done

message_done:                                     ; preds = %failure, %while.end, %if.end
  %13 = load ptr, ptr %ptr.addr, align 8
  ret ptr %13

failure:                                          ; preds = %if.then12, %if.then5
  store ptr null, ptr %ptr.addr, align 8
  br label %message_done
}