; Function Attrs: mustprogress uwtable
define noundef ptr @_ZN6google8protobuf8internal14ZeroFieldsBase14_InternalParseEPKcPNS1_12ParseContextE(ptr noundef nonnull align 8 dereferenceable(20) %this, ptr noundef %ptr, ptr noundef %ctx) unnamed_addr #3 align 2 {
entry:
  %group_depth_.i = getelementptr inbounds i8, ptr %ctx, i64 92
  %buffer_end_.i.i = getelementptr inbounds i8, ptr %ctx, i64 8
  %limit_.i.i = getelementptr inbounds i8, ptr %ctx, i64 28
  %_internal_metadata_ = getelementptr inbounds i8, ptr %this, i64 8
  br label %while.cond

while.cond:                                       ; preds = %_ZN6google8protobuf8internal16InternalMetadata22mutable_unknown_fieldsINS0_15UnknownFieldSetEEEPT_v.exit, %entry
  %ptr.addr.0 = phi ptr [ %ptr, %entry ], [ %call8, %_ZN6google8protobuf8internal16InternalMetadata22mutable_unknown_fieldsINS0_15UnknownFieldSetEEEPT_v.exit ]
  %0 = load i32, ptr %group_depth_.i, align 4
  %1 = load ptr, ptr %ctx, align 8
  %cmp.i.i = icmp ult ptr %ptr.addr.0, %1
  br i1 %cmp.i.i, label %while.body, label %if.end.i.i

if.end.i.i:                                       ; preds = %while.cond
  %2 = load ptr, ptr %buffer_end_.i.i, align 8
  %sub.ptr.lhs.cast.i.i = ptrtoint ptr %ptr.addr.0 to i64
  %sub.ptr.rhs.cast.i.i = ptrtoint ptr %2 to i64
  %sub.ptr.sub.i.i = sub i64 %sub.ptr.lhs.cast.i.i, %sub.ptr.rhs.cast.i.i
  %conv.i.i = trunc i64 %sub.ptr.sub.i.i to i32
  %3 = load i32, ptr %limit_.i.i, align 4
  %cmp2.i.i = icmp eq i32 %3, %conv.i.i
  br i1 %cmp2.i.i, label %if.then3.i.i, label %_ZN6google8protobuf8internal12ParseContext4DoneEPPKc.exit

if.then3.i.i:                                     ; preds = %if.end.i.i
  %cmp4.i.i = icmp sgt i32 %conv.i.i, 0
  %next_chunk_.i.i = getelementptr inbounds i8, ptr %ctx, i64 16
  %4 = load ptr, ptr %next_chunk_.i.i, align 8
  %cmp5.i.i = icmp eq ptr %4, null
  %or.cond.i.i = select i1 %cmp4.i.i, i1 %cmp5.i.i, i1 false
  %spec.select = select i1 %or.cond.i.i, ptr null, ptr %ptr.addr.0
  br label %message_done

_ZN6google8protobuf8internal12ParseContext4DoneEPPKc.exit: ; preds = %if.end.i.i
  %call9.i.i = tail call { ptr, i8 } @_ZN6google8protobuf8internal18EpsCopyInputStream12DoneFallbackEii(ptr noundef nonnull align 8 dereferenceable(88) %ctx, i32 noundef %conv.i.i, i32 noundef %0)
  %5 = extractvalue { ptr, i8 } %call9.i.i, 0
  %6 = extractvalue { ptr, i8 } %call9.i.i, 1
  %7 = and i8 %6, 1
  %tobool.i.i.not = icmp eq i8 %7, 0
  br i1 %tobool.i.i.not, label %while.body, label %message_done

while.body:                                       ; preds = %while.cond, %_ZN6google8protobuf8internal12ParseContext4DoneEPPKc.exit
  %ptr.addr.116 = phi ptr [ %5, %_ZN6google8protobuf8internal12ParseContext4DoneEPPKc.exit ], [ %ptr.addr.0, %while.cond ]
  %8 = load i8, ptr %ptr.addr.116, align 1
  %conv.i = zext i8 %8 to i32
  %cmp.i = icmp sgt i8 %8, -1
  %add.ptr.i = getelementptr inbounds i8, ptr %ptr.addr.116, i64 1
  br i1 %cmp.i, label %_ZN6google8protobuf8internal7ReadTagEPKcPjj.exit, label %if.end.i

if.end.i:                                         ; preds = %while.body
  %9 = load i8, ptr %add.ptr.i, align 1
  %conv2.i = zext i8 %9 to i32
  %sub.i = shl nuw nsw i32 %conv2.i, 7
  %shl.i = add nsw i32 %conv.i, -128
  %add.i = or disjoint i32 %sub.i, %shl.i
  %cmp3.i = icmp sgt i8 %9, -1
  br i1 %cmp3.i, label %if.then4.i, label %if.end6.i

if.then4.i:                                       ; preds = %if.end.i
  %add.ptr5.i = getelementptr inbounds i8, ptr %ptr.addr.116, i64 2
  br label %_ZN6google8protobuf8internal7ReadTagEPKcPjj.exit

if.end6.i:                                        ; preds = %if.end.i
  %call.i = tail call { ptr, i32 } @_ZN6google8protobuf8internal15ReadTagFallbackEPKcj(ptr noundef nonnull %ptr.addr.116, i32 noundef %add.i)
  %10 = extractvalue { ptr, i32 } %call.i, 0
  %11 = extractvalue { ptr, i32 } %call.i, 1
  br label %_ZN6google8protobuf8internal7ReadTagEPKcPjj.exit

_ZN6google8protobuf8internal7ReadTagEPKcPjj.exit: ; preds = %while.body, %if.then4.i, %if.end6.i
  %tag.0 = phi i32 [ %add.i, %if.then4.i ], [ %11, %if.end6.i ], [ %conv.i, %while.body ]
  %retval.0.i = phi ptr [ %add.ptr5.i, %if.then4.i ], [ %10, %if.end6.i ], [ %add.ptr.i, %while.body ]
  %cmp = icmp eq i32 %tag.0, 0
  %and = and i32 %tag.0, 7
  %cmp3 = icmp eq i32 %and, 4
  %or.cond = or i1 %cmp, %cmp3
  br i1 %or.cond, label %if.then, label %if.end6

if.then:                                          ; preds = %_ZN6google8protobuf8internal7ReadTagEPKcPjj.exit
  %tobool.not = icmp eq ptr %retval.0.i, null
  br i1 %tobool.not, label %message_done, label %if.end

if.end:                                           ; preds = %if.then
  %sub.i4 = add i32 %tag.0, -1
  %last_tag_minus_1_.i = getelementptr inbounds i8, ptr %ctx, i64 80
  store i32 %sub.i4, ptr %last_tag_minus_1_.i, align 8
  br label %message_done

if.end6:                                          ; preds = %_ZN6google8protobuf8internal7ReadTagEPKcPjj.exit
  %conv = zext i32 %tag.0 to i64
  %12 = load i64, ptr %_internal_metadata_, align 8
  %and.i = and i64 %12, 1
  %tobool.i.not = icmp eq i64 %and.i, 0
  br i1 %tobool.i.not, label %if.else.i, label %if.then.i

if.then.i:                                        ; preds = %if.end6
  %and.i5 = and i64 %12, -2
  %13 = inttoptr i64 %and.i5 to ptr
  %unknown_fields.i = getelementptr inbounds i8, ptr %13, i64 8
  br label %_ZN6google8protobuf8internal16InternalMetadata22mutable_unknown_fieldsINS0_15UnknownFieldSetEEEPT_v.exit

if.else.i:                                        ; preds = %if.end6
  %call3.i = tail call noundef ptr @_ZN6google8protobuf8internal16InternalMetadata27mutable_unknown_fields_slowINS0_15UnknownFieldSetEEEPT_v(ptr noundef nonnull align 8 dereferenceable(8) %_internal_metadata_)
  br label %_ZN6google8protobuf8internal16InternalMetadata22mutable_unknown_fieldsINS0_15UnknownFieldSetEEEPT_v.exit

_ZN6google8protobuf8internal16InternalMetadata22mutable_unknown_fieldsINS0_15UnknownFieldSetEEEPT_v.exit: ; preds = %if.else.i, %if.then.i
  %retval.i.0 = phi ptr [ %unknown_fields.i, %if.then.i ], [ %call3.i, %if.else.i ]
  %call8 = tail call noundef ptr @_ZN6google8protobuf8internal17UnknownFieldParseEmPNS0_15UnknownFieldSetEPKcPNS1_12ParseContextE(i64 noundef %conv, ptr noundef %retval.i.0, ptr noundef %retval.0.i, ptr noundef nonnull %ctx)
  %tobool9.not = icmp eq ptr %call8, null
  br i1 %tobool9.not, label %message_done, label %while.cond, !llvm.loop !4

message_done:                                     ; preds = %_ZN6google8protobuf8internal16InternalMetadata22mutable_unknown_fieldsINS0_15UnknownFieldSetEEEPT_v.exit, %_ZN6google8protobuf8internal12ParseContext4DoneEPPKc.exit, %if.then3.i.i, %if.then, %if.end
  %ptr.addr.2 = phi ptr [ %retval.0.i, %if.end ], [ null, %if.then ], [ %spec.select, %if.then3.i.i ], [ null, %_ZN6google8protobuf8internal16InternalMetadata22mutable_unknown_fieldsINS0_15UnknownFieldSetEEEPT_v.exit ], [ %5, %_ZN6google8protobuf8internal12ParseContext4DoneEPPKc.exit ]
  ret ptr %ptr.addr.2
}